target datalayout = "e-m:e-p270:32:32-p271:32:32-p272:64:64-i64:64-i128:128-f80:128-n8:16:32:64-S128"
target triple = "x86_64-pc-linux-gnu"

%"class.gmx::AnalysisHistogramSettings" = type <{ float, float, float, float, i32, i8, [3 x i8] }>

; Function Attrs: mustprogress nounwind uwtable
define noundef i32 @_ZNK3gmx25AnalysisHistogramSettings7findBinEf(ptr noundef nonnull align 4 dereferenceable(21) %0, float noundef %1) #0 align 2 {
  %3 = alloca i32, align 4
  %4 = alloca ptr, align 8
  %5 = alloca float, align 4
  %6 = alloca i32, align 4
  store ptr %0, ptr %4, align 8
  store float %1, ptr %5, align 4
  %7 = load ptr, ptr %4, align 8
  %8 = load float, ptr %5, align 4
  %9 = getelementptr inbounds %"class.gmx::AnalysisHistogramSettings", ptr %7, i32 0, i32 0
  %10 = load float, ptr %9, align 4
  %11 = fcmp olt float %8, %10
  br i1 %11, label %12, label %17

12:                                               ; preds = %2
  %13 = getelementptr inbounds %"class.gmx::AnalysisHistogramSettings", ptr %7, i32 0, i32 5
  %14 = load i8, ptr %13, align 4
  %15 = trunc i8 %14 to i1
  %16 = select i1 %15, i32 0, i32 -1
  store i32 %16, ptr %3, align 4
  br label %43

17:                                               ; preds = %2
  %18 = load float, ptr %5, align 4
  %19 = getelementptr inbounds %"class.gmx::AnalysisHistogramSettings", ptr %7, i32 0, i32 0
  %20 = load float, ptr %19, align 4
  %21 = fsub float %18, %20
  %22 = getelementptr inbounds %"class.gmx::AnalysisHistogramSettings", ptr %7, i32 0, i32 3
  %23 = load float, ptr %22, align 4
  %24 = fmul float %21, %23
  %25 = fptosi float %24 to i32
  store i32 %25, ptr %6, align 4
  %26 = load i32, ptr %6, align 4
  %27 = getelementptr inbounds %"class.gmx::AnalysisHistogramSettings", ptr %7, i32 0, i32 4
  %28 = load i32, ptr %27, align 4
  %29 = icmp sge i32 %26, %28
  br i1 %29, label %30, label %41

30:                                               ; preds = %17
  %31 = getelementptr inbounds %"class.gmx::AnalysisHistogramSettings", ptr %7, i32 0, i32 5
  %32 = load i8, ptr %31, align 4
  %33 = trunc i8 %32 to i1
  br i1 %33, label %34, label %38

34:                                               ; preds = %30
  %35 = getelementptr inbounds %"class.gmx::AnalysisHistogramSettings", ptr %7, i32 0, i32 4
  %36 = load i32, ptr %35, align 4
  %37 = sub nsw i32 %36, 1
  br label %39

38:                                               ; preds = %30
  br label %39

39:                                               ; preds = %38, %34
  %40 = phi i32 [ %37, %34 ], [ -1, %38 ]
  store i32 %40, ptr %3, align 4
  br label %43

41:                                               ; preds = %17
  %42 = load i32, ptr %6, align 4
  store i32 %42, ptr %3, align 4
  br label %43

43:                                               ; preds = %41, %39, %12
  %44 = load i32, ptr %3, align 4
  ret i32 %44
}