; Function Attrs: mustprogress nofree norecurse nosync nounwind willreturn memory(argmem: read) uwtable
define noundef i32 @_ZNK3gmx25AnalysisHistogramSettings7findBinEf(ptr nocapture noundef nonnull readonly align 4 dereferenceable(21) %0, float noundef %1) local_unnamed_addr #12 align 2 {
  %3 = load float, ptr %0, align 4
  %4 = fcmp ogt float %3, %1
  br i1 %4, label %5, label %12

5:                                                ; preds = %2
  %6 = getelementptr inbounds i8, ptr %0, i64 20
  %7 = load i8, ptr %6, align 4
  %8 = and i8 %7, 1
  %9 = xor i8 %8, 1
  %10 = zext nneg i8 %9 to i32
  %11 = sub nsw i32 0, %10
  br label %25

12:                                               ; preds = %2
  %13 = fsub float %1, %3
  %14 = getelementptr inbounds i8, ptr %0, i64 12
  %15 = load float, ptr %14, align 4
  %16 = fmul float %13, %15
  %17 = fptosi float %16 to i32
  %18 = getelementptr inbounds i8, ptr %0, i64 16
  %19 = load i32, ptr %18, align 4
  %.not = icmp sgt i32 %19, %17
  br i1 %.not, label %25, label %20

20:                                               ; preds = %12
  %21 = getelementptr inbounds i8, ptr %0, i64 20
  %22 = load i8, ptr %21, align 4
  %23 = trunc i8 %22 to i1
  %24 = add nsw i32 %19, -1
  %spec.select = select i1 %23, i32 %24, i32 -1
  br label %25

25:                                               ; preds = %12, %20, %5
  %.0 = phi i32 [ %11, %5 ], [ %spec.select, %20 ], [ %17, %12 ]
  ret i32 %.0
}